; Function Attrs: mustprogress uwtable
define internal fastcc noundef zeroext i1 @_ZL18AreImagesIdenticalRN2cv3MatES1_() unnamed_addr #4 personality ptr @__gxx_personality_v0 {
  %1 = alloca %"class.cv::Mat", align 8
  %2 = alloca %"class.cv::_InputArray", align 8
  %3 = alloca %"class.cv::_InputArray", align 8
  %4 = alloca %"class.cv::_OutputArray", align 8
  %5 = alloca %"class.cv::_InputArray", align 8
  call void @_ZN2cv3MatC1Ev(ptr noundef nonnull align 8 dereferenceable(96) %1) #10
  %6 = getelementptr inbounds i8, ptr %2, i64 16
  store i32 0, ptr %6, align 8
  %7 = getelementptr inbounds i8, ptr %2, i64 20
  store i32 0, ptr %7, align 4
  store i32 16842752, ptr %2, align 8
  %8 = getelementptr inbounds i8, ptr %2, i64 8
  store ptr @dst, ptr %8, align 8
  %9 = getelementptr inbounds i8, ptr %3, i64 16
  store i32 0, ptr %9, align 8
  %10 = getelementptr inbounds i8, ptr %3, i64 20
  store i32 0, ptr %10, align 4
  store i32 16842752, ptr %3, align 8
  %11 = getelementptr inbounds i8, ptr %3, i64 8
  store ptr @rlePainted, ptr %11, align 8
  %12 = getelementptr inbounds i8, ptr %4, i64 8
  %13 = getelementptr inbounds i8, ptr %4, i64 16
  store i64 0, ptr %13, align 8
  store i32 33619968, ptr %4, align 8
  store ptr %1, ptr %12, align 8
  invoke void @_ZN2cv7absdiffERKNS_11_InputArrayES2_RKNS_12_OutputArrayE(ptr noundef nonnull align 8 dereferenceable(24) %2, ptr noundef nonnull align 8 dereferenceable(24) %3, ptr noundef nonnull align 8 dereferenceable(24) %4)
          to label %14 unwind label %21

14:                                               ; preds = %0
  %15 = getelementptr inbounds i8, ptr %5, i64 16
  store i32 0, ptr %15, align 8
  %16 = getelementptr inbounds i8, ptr %5, i64 20
  store i32 0, ptr %16, align 4
  store i32 16842752, ptr %5, align 8
  %17 = getelementptr inbounds i8, ptr %5, i64 8
  store ptr %1, ptr %17, align 8
  %18 = invoke noundef i32 @_ZN2cv12countNonZeroERKNS_11_InputArrayE(ptr noundef nonnull align 8 dereferenceable(24) %5)
          to label %19 unwind label %23

19:                                               ; preds = %14
  %20 = icmp eq i32 %18, 0
  call void @_ZN2cv3MatD1Ev(ptr noundef nonnull align 8 dereferenceable(96) %1) #10
  ret i1 %20

21:                                               ; preds = %0
  %22 = landingpad { ptr, i32 }
          cleanup
  br label %25

23:                                               ; preds = %14
  %24 = landingpad { ptr, i32 }
          cleanup
  br label %25

25:                                               ; preds = %21, %23
  %.pn9 = phi { ptr, i32 } [ %24, %23 ], [ %22, %21 ]
  call void @_ZN2cv3MatD1Ev(ptr noundef nonnull align 8 dereferenceable(96) %1) #10
  resume { ptr, i32 } %.pn9
}